Certificate:
    Data:
        Version: 3 (0x2)
        Serial Number:
            af:26:69:ee:74:a5:1d:88:6b:27:df:74:b5:a5:6b:6a
        Signature Algorithm: ecdsa-with-SHA512
        Issuer: CN=kore
        Validity
            Not Before: Nov 19 17:14:46 2022 GMT
            Not After : Feb 21 17:14:46 2025 GMT
        Subject: CN=kore
        Subject Public Key Info:
            Public Key Algorithm: id-ecPublicKey
                Public-Key: (384 bit)
                pub:
                    04:70:37:ff:1e:ad:0f:35:e9:30:3a:2e:45:ff:4c:
                    b5:d8:13:47:e9:01:e1:fd:fe:71:9e:fb:80:dc:d2:
                    9c:ee:2e:08:11:58:b4:66:65:c2:68:df:48:a0:83:
                    0c:62:04:55:19:5d:1a:98:3a:ed:b0:53:38:0a:01:
                    14:bc:b7:40:a8:82:d9:b5:26:a7:f6:1b:c1:e1:5d:
                    c6:23:d5:c5:f1:4e:ca:c1:b7:56:8b:9a:5f:27:22:
                    42:86:77:10:54:99:c7
                ASN1 OID: secp384r1
                NIST CURVE: P-384
        X509v3 extensions:
            X509v3 Basic Constraints: 
                CA:FALSE
            X509v3 Subject Key Identifier: 
                36:50:66:E7:FE:FC:BB:A2:35:E5:CB:5A:60:51:C5:59:97:7A:8A:0E
            X509v3 Authority Key Identifier: 
                keyid:50:FD:38:DD:E0:F8:AF:50:93:18:FA:51:6B:2E:39:D6:58:89:1C:F9
                DirName:/CN=kore
                serial:21:DB:23:08:EB:0D:AD:02:85:62:F9:E4:3C:00:11:6F:2D:1E:ED:31
            X509v3 Extended Key Usage: 
                TLS Web Server Authentication
            X509v3 Key Usage: 
                Digital Signature, Key Encipherment
            X509v3 Subject Alternative Name: 
                DNS:kore
    Signature Algorithm: ecdsa-with-SHA512
    Signature Value:
        30:65:02:30:3b:8c:3d:28:20:86:82:f4:98:77:3a:1c:a2:7e:
        60:55:0d:4e:20:26:6c:f4:eb:40:21:7c:1a:d8:05:4e:a1:ae:
        c1:af:47:cf:9d:d0:32:08:f3:80:89:1d:8d:87:61:78:02:31:
        00:e8:47:f9:ac:c4:11:ac:21:b8:41:8c:04:9c:a3:ad:db:6e:
        6d:20:88:a4:1a:e9:e5:58:6e:85:a2:c6:16:9f:62:00:87:11:
        64:63:d0:ec:09:63:69:a1:72:3d:5f:80:30
-----BEGIN CERTIFICATE-----
MIICBzCCAY2gAwIBAgIRAK8mae50pR2IayffdLWla2owCgYIKoZIzj0EAwQwDzEN
MAsGA1UEAwwEa29yZTAeFw0yMjExMTkxNzE0NDZaFw0yNTAyMjExNzE0NDZaMA8x
DTALBgNVBAMMBGtvcmUwdjAQBgcqhkjOPQIBBgUrgQQAIgNiAARwN/8erQ816TA6
LkX/TLXYE0fpAeH9/nGe+4Dc0pzuLggRWLRmZcJo30iggwxiBFUZXRqYOu2wUzgK
ARS8t0Cogtm1Jqf2G8HhXcYj1cXxTsrBt1aLml8nIkKGdxBUmcejgawwgakwCQYD
VR0TBAIwADAdBgNVHQ4EFgQUNlBm5/78u6I15ctaYFHFWZd6ig4wSgYDVR0jBEMw
QYAUUP043eD4r1CTGPpRay451liJHPmhE6QRMA8xDTALBgNVBAMMBGtvcmWCFCHb
IwjrDa0ChWL55DwAEW8tHu0xMBMGA1UdJQQMMAoGCCsGAQUFBwMBMAsGA1UdDwQE
AwIFoDAPBgNVHREECDAGggRrb3JlMAoGCCqGSM49BAMEA2gAMGUCMDuMPSgghoL0
mHc6HKJ+YFUNTiAmbPTrQCF8GtgFTqGuwa9Hz53QMgjzgIkdjYdheAIxAOhH+azE
EawhuEGMBJyjrdtubSCIpBrp5VhuhaLGFp9iAIcRZGPQ7AljaaFyPV+AMA==
-----END CERTIFICATE-----
